; Function Attrs: mustprogress uwtable
define noundef zeroext i1 @_ZN3vcg3tri2io10VertexGrid7IsValidEii(ptr noundef nonnull align 8 dereferenceable(16) %0, i32 noundef %1, i32 noundef %2) local_unnamed_addr #9 align 2 personality ptr @__gxx_personality_v0 {
  %4 = load i32, ptr %0, align 8
  %.not = icmp sgt i32 %4, %1
  %5 = getelementptr inbounds i8, ptr %0, i64 4
  %6 = load i32, ptr %5, align 4
  %.not10 = icmp sgt i32 %6, %2
  %or.cond = select i1 %.not, i1 %.not10, i1 false
  br i1 %or.cond, label %7, label %35

7:                                                ; preds = %3
  %8 = mul i32 %1, 20
  %9 = mul i32 %8, %2
  %10 = getelementptr inbounds i8, ptr %0, i64 8
  %11 = load ptr, ptr %10, align 8
  %12 = getelementptr inbounds i8, ptr %11, i64 4
  %13 = load i32, ptr %12, align 4
  %14 = icmp sgt i32 %9, %13
  br i1 %14, label %35, label %15

15:                                               ; preds = %7
  %16 = load atomic i32, ptr %11 monotonic, align 4
  %17 = icmp ugt i32 %16, 1
  br i1 %17, label %21, label %18

18:                                               ; preds = %15
  %19 = getelementptr inbounds i8, ptr %11, i64 16
  %20 = load i64, ptr %19, align 8
  %.not.i.i = icmp eq i64 %20, 24
  br i1 %.not.i.i, label %_ZN10QByteArray4dataEv.exit, label %21

21:                                               ; preds = %18, %15
  %22 = add i32 %13, 1
  %23 = getelementptr inbounds i8, ptr %11, i64 8
  %24 = load i32, ptr %23, align 8
  %.lobit.i.i.i = lshr i32 %24, 31
  tail call void @_ZN10QByteArray11reallocDataEj6QFlagsIN10QArrayData16AllocationOptionEE(ptr noundef nonnull align 8 dereferenceable(8) %10, i32 noundef %22, i32 %.lobit.i.i.i)
  %.pre.i = load ptr, ptr %10, align 8
  %.phi.trans.insert.i = getelementptr inbounds i8, ptr %.pre.i, i64 16
  %.pre1.i = load i64, ptr %.phi.trans.insert.i, align 8
  %.pre = load i32, ptr %0, align 8
  br label %_ZN10QByteArray4dataEv.exit

_ZN10QByteArray4dataEv.exit:                      ; preds = %18, %21
  %25 = phi i32 [ %4, %18 ], [ %.pre, %21 ]
  %26 = phi i64 [ 24, %18 ], [ %.pre1.i, %21 ]
  %27 = phi ptr [ %11, %18 ], [ %.pre.i, %21 ]
  %28 = getelementptr inbounds i8, ptr %27, i64 %26
  %29 = mul nsw i32 %25, %2
  %30 = add nsw i32 %29, %1
  %31 = sext i32 %30 to i64
  %32 = getelementptr inbounds %"struct.vcg::tri::io::VertexGrid::Vertex", ptr %28, i64 %31
  %33 = load i8, ptr %32, align 4
  %34 = icmp eq i8 %33, 1
  br label %35

35:                                               ; preds = %3, %7, %_ZN10QByteArray4dataEv.exit
  %.0 = phi i1 [ %34, %_ZN10QByteArray4dataEv.exit ], [ true, %7 ], [ true, %3 ]
  ret i1 %.0
}